Certificate:
    Data:
        Version: 3 (0x2)
        Serial Number: 1 (0x1)
    Signature Algorithm: sha1WithRSAEncryption
        Issuer: CN=Example CA, ST=Virginia, C=US/emailAddress=ca@exampleca.org, O=Root Certification Authority
        Validity
            Not Before: Jan 29 12:49:24 2014 GMT
            Not After : Jan 29 12:49:24 2015 GMT
        Subject: CN=blablabla, ST=balksdjf, C=DE/emailAddress=helgav@google.com, O=alsdkjf, OU=laskdfj
        Subject Public Key Info:
            Public Key Algorithm: rsaEncryption
                Public-Key: (1024 bit)
                Modulus:
                    00:e7:83:ac:65:18:8b:33:06:ad:d2:09:cc:07:ce:
                    08:ac:8b:f5:c2:0d:ba:2d:a4:8a:46:5f:6e:c8:d9:
                    f6:d8:51:98:ea:04:73:74:0a:1b:2d:95:87:47:bb:
                    b9:da:b5:2d:1c:8d:9b:a9:02:f3:cb:c7:3e:dc:f8:
                    55:e4:10:bf:da:ee:e1:9d:41:d3:8e:d4:23:e5:03:
                    6b:51:fa:34:53:40:06:1c:07:34:73:a4:d7:70:f6:
                    9d:ea:c8:2a:21:c7:67:7f:99:f4:5c:a8:85:da:a7:
                    83:62:0e:ee:40:07:9d:b1:68:5a:14:78:7f:8b:5a:
                    e7:91:f2:c2:5a:a4:ba:83:09
                Exponent: 65537 (0x10001)
        X509v3 extensions:
            X509v3 Basic Constraints: 
                CA:FALSE
    Signature Algorithm: sha1WithRSAEncryption
         04:f6:dd:8e:1e:0e:78:f0:95:eb:b2:f7:52:96:e0:35:12:67:
         de:ea:39:db:f2:4d:a8:65:c2:9b:cb:e4:b9:64:0d:7a:20:87:
         1b:79:a9:89:49:69:2d:d7:58:f1:4d:7b:82:31:46:ed:2e:bf:
         7d:28:0d:51:31:b8:16:fe:8e:d7:a7:27:4c:9b:85:12:8d:ea:
         07:ec:90:47:eb:7d:0a:fa:ba:68:fd:f5:2e:26:24:04:5d:90:
         07:dd:d8:41:d5:11:10:12:9a:a3:c8:dd:bb:8a:43:ce:35:ac:
         1b:e9:77:69:e2:80:7b:c4:48:1f:9f:59:ea:85:58:58:1f:3c:
         47:2a
-----BEGIN CERTIFICATE-----
MIICejCCAeOgAwIBAgIBATANBgkqhkiG9w0BAQUFADB9MRMwEQYDVQQDEwpFeGFt
cGxlIENBMREwDwYDVQQIEwhWaXJnaW5pYTELMAkGA1UEBhMCVVMxHzAdBgkqhkiG
9w0BCQEWEGNhQGV4YW1wbGVjYS5vcmcxJTAjBgNVBAoTHFJvb3QgQ2VydGlmaWNh
dGlvbiBBdXRob3JpdHkwHhcNMTQwMTI5MTI0OTI0WhcNMTUwMTI5MTI0OTI0WjB6
MRIwEAYDVQQDDAlibGFibGFibGExETAPBgNVBAgMCGJhbGtzZGpmMQswCQYDVQQG
EwJERTEgMB4GCSqGSIb3DQEJARYRaGVsZ2F2QGdvb2dsZS5jb20xEDAOBgNVBAoM
B2Fsc2RramYxEDAOBgNVBAsMB2xhc2tkZmowgZ8wDQYJKoZIhvcNAQEBBQADgY0A
MIGJAoGBAOeDrGUYizMGrdIJzAfOCKyL9cINui2kikZfbsjZ9thRmOoEc3QKGy2V
h0e7udq1LRyNm6kC88vHPtz4VeQQv9ru4Z1B047UI+UDa1H6NFNABhwHNHOk13D2
nerIKiHHZ3+Z9Fyohdqng2IO7kAHnbFoWhR4f4ta55HywlqkuoMJAgMBAAGjDTAL
MAkGA1UdEwQCMAAwDQYJKoZIhvcNAQEFBQADgYEABPbdjh4OePCV67L3UpbgNRJn
3uo52/JNqGXCm8vkuWQNeiCHG3mpiUlpLddY8U17gjFG7S6/fSgNUTG4Fv6O16cn
TJuFEo3qB+yQR+t9Cvq6aP31LiYkBF2QB93YQdUREBKao8jdu4pDzjWsG+l3aeKA
e8RIH59Z6oVYWB88Ryo=
-----END CERTIFICATE-----
