Certificate:
    Data:
        Version: 3 (0x2)
        Serial Number: 1 (0x1)
        Signature Algorithm: sha1WithRSAEncryption
        Issuer: CN=Example CA, ST=Virginia, C=US/emailAddress=ca@exampleca.org, O=Root Certification Authority
        Validity
            Not Before: Jan 29 12:26:02 2014 GMT
            Not After : Jan 29 12:26:02 2015 GMT
        Subject: CN=wpeg16.hot.corp.google.com, ST=Germany, C=DE/emailAddress=helgav@google.com, O=Ganeti, OU=Ganeti Core
        Subject Public Key Info:
            Public Key Algorithm: rsaEncryption
            RSA Public Key: (1024 bit)
                Modulus (1024 bit):
                    00:e1:6e:e1:22:1b:4c:2d:79:8e:82:eb:00:b0:38:
                    e3:75:9c:78:7b:12:95:5e:ff:4b:7c:5d:15:9b:84:
                    8d:36:b3:05:b7:d8:f2:e2:27:8a:fd:f6:de:63:a2:
                    e5:e3:a3:c6:56:37:c6:f7:65:d6:e5:9c:f8:c9:93:
                    a5:19:95:f3:16:48:93:b3:e1:73:34:56:bf:a3:10:
                    83:26:24:de:6c:cd:27:bf:7a:81:54:19:d8:84:41:
                    25:8f:ad:e9:ea:58:08:3c:be:7b:c1:68:94:82:cb:
                    59:84:f7:d5:77:76:15:29:81:a6:41:39:8f:4d:ad:
                    1a:b6:09:de:eb:c7:1c:39:dd
                Exponent: 65537 (0x10001)
        X509v3 extensions:
            X509v3 Basic Constraints: 
                CA:FALSE
    Signature Algorithm: sha1WithRSAEncryption
        29:84:dd:f5:14:89:cd:c1:08:41:49:a8:68:1a:35:d0:74:1c:
        b9:49:2c:f4:8f:da:8d:de:5e:4d:61:22:45:7f:53:88:20:30:
        21:bc:81:5c:ad:f8:59:cd:9e:df:c3:b0:a0:30:8f:6c:6f:df:
        eb:e0:55:54:89:11:5a:44:ea:39:4b:eb:a4:dc:1a:78:02:2f:
        95:68:7d:f7:e5:e2:10:a8:09:46:99:1b:2b:a0:74:64:bb:75:
        bd:e1:50:60:10:8e:de:81:b7:b9:03:61:3a:5b:32:cd:dd:f8:
        c3:a6:23:38:5f:92:4e:65:19:86:4f:03:43:c5:a9:af:61:f0:
        f5:2e
-----BEGIN CERTIFICATE-----
MIICjjCCAfegAwIBAgIBATANBgkqhkiG9w0BAQUFADB9MRMwEQYDVQQDEwpFeGFt
cGxlIENBMREwDwYDVQQIEwhWaXJnaW5pYTELMAkGA1UEBhMCVVMxHzAdBgkqhkiG
9w0BCQEWEGNhQGV4YW1wbGVjYS5vcmcxJTAjBgNVBAoTHFJvb3QgQ2VydGlmaWNh
dGlvbiBBdXRob3JpdHkwHhcNMTQwMTI5MTIyNjAyWhcNMTUwMTI5MTIyNjAyWjCB
jTEjMCEGA1UEAxMad3BlZzE2LmhvdC5jb3JwLmdvb2dsZS5jb20xEDAOBgNVBAgT
B0dlcm1hbnkxCzAJBgNVBAYTAkRFMSAwHgYJKoZIhvcNAQkBFhFoZWxnYXZAZ29v
Z2xlLmNvbTEPMA0GA1UEChMGR2FuZXRpMRQwEgYDVQQLEwtHYW5ldGkgQ29yZTCB
nzANBgkqhkiG9w0BAQEFAAOBjQAwgYkCgYEA4W7hIhtMLXmOgusAsDjjdZx4exKV
Xv9LfF0Vm4SNNrMFt9jy4ieK/fbeY6Ll46PGVjfG92XW5Zz4yZOlGZXzFkiTs+Fz
NFa/oxCDJiTebM0nv3qBVBnYhEElj63p6lgIPL57wWiUgstZhPfVd3YVKYGmQTmP
Ta0atgne68ccOd0CAwEAAaMNMAswCQYDVR0TBAIwADANBgkqhkiG9w0BAQUFAAOB
gQAphN31FInNwQhBSahoGjXQdBy5SSz0j9qN3l5NYSJFf1OIIDAhvIFcrfhZzZ7f
w7CgMI9sb9/r4FVUiRFaROo5S+uk3Bp4Ai+VaH335eIQqAlGmRsroHRku3W94VBg
EI7egbe5A2E6WzLN3fjDpiM4X5JOZRmGTwNDxamvYfD1Lg==
-----END CERTIFICATE-----
