Certificate:
    Data:
        Version: 3 (0x2)
        Serial Number: 1 (0x1)
    Signature Algorithm: md5WithRSAEncryption
        Issuer: CN=Example CA, ST=Virginia, C=US/emailAddress=ca@exampleca.org, O=Root Certification Authority
        Validity
            Not Before: Jan 29 10:39:25 2014 GMT
            Not After : Jan 29 10:39:25 2015 GMT
        Subject: CN=127.0.0.1, ST=Germany, C=DE/emailAddress=helgav@google.com, O=Internet Widgits Pty Ltd
        Subject Public Key Info:
            Public Key Algorithm: rsaEncryption
                Public-Key: (1024 bit)
                Modulus:
                    00:bb:83:07:d4:19:18:35:36:ef:7c:05:60:76:26:
                    6f:7b:dd:67:fa:4a:28:75:fe:9e:5e:0d:f9:9a:a0:
                    95:59:6e:8c:cb:67:9b:50:ec:2e:fd:04:2c:cc:e7:
                    2b:27:e3:76:2b:85:9e:17:6d:cf:96:98:c5:fb:30:
                    86:4c:2a:4c:0b:38:97:fb:e5:43:fd:79:12:8e:d3:
                    6a:b9:b4:ef:69:96:44:9e:61:8a:e8:d8:9d:59:02:
                    77:c3:e7:0e:4d:c5:91:d2:91:29:26:69:d3:d1:e5:
                    50:c9:e1:3f:f5:8a:f6:ef:82:e0:44:31:96:c4:af:
                    34:b3:a8:4c:06:06:5b:51:4f
                Exponent: 65537 (0x10001)
        X509v3 extensions:
            X509v3 Basic Constraints: 
                CA:FALSE
    Signature Algorithm: md5WithRSAEncryption
         31:e4:3c:ff:56:9b:17:ad:1a:64:96:04:91:41:75:58:b8:50:
         24:e1:f0:fd:fe:5c:59:18:1b:ad:67:22:05:61:f4:0b:e3:59:
         e0:42:22:55:8e:34:5b:12:4e:8f:65:54:b7:92:39:d6:de:ca:
         f2:ed:b3:d3:0d:47:71:fb:f8:e3:cd:b7:dc:b3:c1:86:d6:cb:
         f2:6e:12:e3:66:f3:6d:e8:bd:81:a8:67:3b:71:5e:ad:ef:07:
         f8:65:b7:4a:f8:44:ed:8f:a1:fe:47:2b:be:25:80:c8:a4:05:
         c6:83:9b:5b:ee:f6:04:72:8d:52:1d:fc:32:a1:bf:22:5b:98:
         71:38
-----BEGIN CERTIFICATE-----
MIICeDCCAeGgAwIBAgIBATANBgkqhkiG9w0BAQQFADB9MRMwEQYDVQQDEwpFeGFt
cGxlIENBMREwDwYDVQQIEwhWaXJnaW5pYTELMAkGA1UEBhMCVVMxHzAdBgkqhkiG
9w0BCQEWEGNhQGV4YW1wbGVjYS5vcmcxJTAjBgNVBAoTHFJvb3QgQ2VydGlmaWNh
dGlvbiBBdXRob3JpdHkwHhcNMTQwMTI5MTAzOTI1WhcNMTUwMTI5MTAzOTI1WjB4
MRIwEAYDVQQDDAkxMjcuMC4wLjExEDAOBgNVBAgMB0dlcm1hbnkxCzAJBgNVBAYT
AkRFMSAwHgYJKoZIhvcNAQkBFhFoZWxnYXZAZ29vZ2xlLmNvbTEhMB8GA1UECgwY
SW50ZXJuZXQgV2lkZ2l0cyBQdHkgTHRkMIGfMA0GCSqGSIb3DQEBAQUAA4GNADCB
iQKBgQC7gwfUGRg1Nu98BWB2Jm973Wf6Sih1/p5eDfmaoJVZbozLZ5tQ7C79BCzM
5ysn43YrhZ4Xbc+WmMX7MIZMKkwLOJf75UP9eRKO02q5tO9plkSeYYro2J1ZAnfD
5w5NxZHSkSkmadPR5VDJ4T/1ivbvguBEMZbErzSzqEwGBltRTwIDAQABow0wCzAJ
BgNVHRMEAjAAMA0GCSqGSIb3DQEBBAUAA4GBADHkPP9WmxetGmSWBJFBdVi4UCTh
8P3+XFkYG61nIgVh9AvjWeBCIlWONFsSTo9lVLeSOdbeyvLts9MNR3H7+OPNt9yz
wYbWy/JuEuNm823ovYGoZztxXq3vB/hlt0r4RO2Pof5HK74lgMikBcaDm1vu9gRy
jVId/DKhvyJbmHE4
-----END CERTIFICATE-----
