Certificate:
    Data:
        Version: 3 (0x2)
        Serial Number: 1 (0x1)
    Signature Algorithm: md5WithRSAEncryption
        Issuer: CN=Example CA, ST=Virginia, C=US/emailAddress=ca@exampleca.org, O=Root Certification Authority
        Validity
            Not Before: Jan 29 09:42:18 2014 GMT
            Not After : Jan 29 09:42:18 2015 GMT
        Subject: CN=ganeti.example.com, ST=Germany, C=DE/emailAddress=helgav@google.com, O=Ganeti, OU=Ganeti Core
        Subject Public Key Info:
            Public Key Algorithm: rsaEncryption
                Public-Key: (1024 bit)
                Modulus:
                    00:c0:41:f5:c8:60:ea:a4:cd:6b:cd:62:29:17:68:
                    58:c5:7c:6b:44:1c:5d:53:8f:11:53:4d:0e:b2:3d:
                    e9:96:4c:35:21:5f:a0:7f:c7:7d:cd:23:95:02:48:
                    2c:24:0e:8d:8e:a8:38:3f:db:12:41:71:5e:49:e3:
                    9f:2b:08:b4:ce:01:ba:cd:8d:5e:ef:16:61:8a:f5:
                    17:23:17:39:24:24:87:29:ef:f4:af:e4:81:a1:2c:
                    6c:8e:fe:9e:09:ab:ec:66:c1:04:cc:6b:35:8e:fc:
                    41:92:fd:1e:4e:b5:ae:ae:92:0c:e8:72:b2:7a:31:
                    99:78:5b:a8:86:16:19:38:e5
                Exponent: 65537 (0x10001)
        X509v3 extensions:
            X509v3 Basic Constraints: 
                CA:FALSE
    Signature Algorithm: md5WithRSAEncryption
         c6:e7:ed:39:ad:fe:fb:2e:68:34:b5:a2:cd:de:6f:86:83:53:
         a2:b0:73:27:7f:f0:3f:09:94:55:e3:24:25:41:6d:75:83:ab:
         57:1c:83:c7:5b:41:6b:86:e5:2d:a4:f9:6a:6c:f5:fd:c2:92:
         0f:bf:5c:0d:3e:82:34:f0:39:47:eb:50:ec:fb:42:fa:8a:13:
         39:fa:02:2f:c2:b9:dc:4b:c8:72:3a:76:e2:4c:b3:8d:dc:a1:
         53:ca:33:f2:86:eb:55:65:a2:71:11:39:13:a7:7c:16:06:74:
         3d:40:d8:87:a4:db:65:cc:02:5e:ad:d2:dc:2b:9c:37:de:79:
         79:4f
-----BEGIN CERTIFICATE-----
MIIChjCCAe+gAwIBAgIBATANBgkqhkiG9w0BAQQFADB9MRMwEQYDVQQDEwpFeGFt
cGxlIENBMREwDwYDVQQIEwhWaXJnaW5pYTELMAkGA1UEBhMCVVMxHzAdBgkqhkiG
9w0BCQEWEGNhQGV4YW1wbGVjYS5vcmcxJTAjBgNVBAoTHFJvb3QgQ2VydGlmaWNh
dGlvbiBBdXRob3JpdHkwHhcNMTQwMTI5MDk0MjE4WhcNMTUwMTI5MDk0MjE4WjCB
hTEbMBkGA1UEAwwSZ2FuZXRpLmV4YW1wbGUuY29tMRAwDgYDVQQIDAdHZXJtYW55
MQswCQYDVQQGEwJERTEgMB4GCSqGSIb3DQEJARYRaGVsZ2F2QGdvb2dsZS5jb20x
DzANBgNVBAoMBkdhbmV0aTEUMBIGA1UECwwLR2FuZXRpIENvcmUwgZ8wDQYJKoZI
hvcNAQEBBQADgY0AMIGJAoGBAMBB9chg6qTNa81iKRdoWMV8a0QcXVOPEVNNDrI9
6ZZMNSFfoH/Hfc0jlQJILCQOjY6oOD/bEkFxXknjnysItM4Bus2NXu8WYYr1FyMX
OSQkhynv9K/kgaEsbI7+ngmr7GbBBMxrNY78QZL9Hk61rq6SDOhysnoxmXhbqIYW
GTjlAgMBAAGjDTALMAkGA1UdEwQCMAAwDQYJKoZIhvcNAQEEBQADgYEAxuftOa3+
+y5oNLWizd5vhoNTorBzJ3/wPwmUVeMkJUFtdYOrVxyDx1tBa4blLaT5amz1/cKS
D79cDT6CNPA5R+tQ7PtC+ooTOfoCL8K53EvIcjp24kyzjdyhU8oz8obrVWWicRE5
E6d8FgZ0PUDYh6TbZcwCXq3S3CucN955eU8=
-----END CERTIFICATE-----
