Certificate:
    Data:
        Version: 3 (0x2)
        Serial Number: 1 (0x1)
        Signature Algorithm: md5WithRSAEncryption
        Issuer: CN=Example CA, ST=Virginia, C=US/emailAddress=ca@exampleca.org, O=Root Certification Authority
        Validity
            Not Before: Jan 29 12:01:52 2014 GMT
            Not After : Jan 29 12:01:52 2015 GMT
        Subject: CN=wpeg16.hot.corp.google.com, ST=Germany, C=DE/emailAddress=helgav@google.com, O=Ganeti, OU=Ganeti Core
        Subject Public Key Info:
            Public Key Algorithm: rsaEncryption
            RSA Public Key: (1024 bit)
                Modulus (1024 bit):
                    00:c6:65:28:bc:40:78:05:7a:23:c3:c0:db:46:7b:
                    b8:59:ec:61:66:36:45:35:08:2a:de:53:4f:bd:fc:
                    cc:9e:2f:54:d0:00:bf:11:57:62:23:80:d0:bb:f4:
                    ce:57:d5:c2:09:f9:f8:dd:31:14:25:35:f7:0f:18:
                    a0:0c:3d:c0:72:6c:d5:25:bb:e1:94:05:1b:88:04:
                    3e:ad:ac:cb:28:a3:cd:9e:b0:c0:76:53:82:ad:55:
                    3d:0d:06:4f:f4:19:87:c5:20:32:ae:76:87:92:7e:
                    87:7c:74:10:bb:65:0d:e0:c2:34:a6:28:79:5a:10:
                    02:a1:16:04:43:6d:cd:7d:59
                Exponent: 65537 (0x10001)
        X509v3 extensions:
            X509v3 Basic Constraints: 
                CA:FALSE
    Signature Algorithm: md5WithRSAEncryption
        66:e8:df:3b:e9:df:54:76:0e:83:b3:b2:0d:50:9f:41:dd:c1:
        eb:79:35:d6:ad:48:d4:9d:41:59:0a:57:22:59:ed:3b:a7:9a:
        32:8b:db:e4:19:ff:d6:43:bf:29:05:aa:07:a2:d6:73:40:66:
        5d:1c:5a:fa:87:cd:2d:49:e5:79:10:77:1a:ff:c9:f0:19:f9:
        ad:09:44:1e:ff:71:64:c6:5a:2d:f9:66:fd:be:40:d3:9c:73:
        e3:d9:62:a1:a3:22:2e:40:a5:45:b0:b7:ec:66:b9:57:d0:82:
        88:20:bf:7b:8f:91:3b:3d:c3:73:a7:58:55:bc:b8:a5:ed:a5:
        2b:2b
-----BEGIN CERTIFICATE-----
MIICjjCCAfegAwIBAgIBATANBgkqhkiG9w0BAQQFADB9MRMwEQYDVQQDEwpFeGFt
cGxlIENBMREwDwYDVQQIEwhWaXJnaW5pYTELMAkGA1UEBhMCVVMxHzAdBgkqhkiG
9w0BCQEWEGNhQGV4YW1wbGVjYS5vcmcxJTAjBgNVBAoTHFJvb3QgQ2VydGlmaWNh
dGlvbiBBdXRob3JpdHkwHhcNMTQwMTI5MTIwMTUyWhcNMTUwMTI5MTIwMTUyWjCB
jTEjMCEGA1UEAxMad3BlZzE2LmhvdC5jb3JwLmdvb2dsZS5jb20xEDAOBgNVBAgT
B0dlcm1hbnkxCzAJBgNVBAYTAkRFMSAwHgYJKoZIhvcNAQkBFhFoZWxnYXZAZ29v
Z2xlLmNvbTEPMA0GA1UEChMGR2FuZXRpMRQwEgYDVQQLEwtHYW5ldGkgQ29yZTCB
nzANBgkqhkiG9w0BAQEFAAOBjQAwgYkCgYEAxmUovEB4BXojw8DbRnu4WexhZjZF
NQgq3lNPvfzMni9U0AC/EVdiI4DQu/TOV9XCCfn43TEUJTX3DxigDD3AcmzVJbvh
lAUbiAQ+razLKKPNnrDAdlOCrVU9DQZP9BmHxSAyrnaHkn6HfHQQu2UN4MI0pih5
WhACoRYEQ23NfVkCAwEAAaMNMAswCQYDVR0TBAIwADANBgkqhkiG9w0BAQQFAAOB
gQBm6N876d9Udg6Ds7INUJ9B3cHreTXWrUjUnUFZClciWe07p5oyi9vkGf/WQ78p
BaoHotZzQGZdHFr6h80tSeV5EHca/8nwGfmtCUQe/3Fkxlot+Wb9vkDTnHPj2WKh
oyIuQKVFsLfsZrlX0IKIIL97j5E7PcNzp1hVvLil7aUrKw==
-----END CERTIFICATE-----
