Certificate:
    Data:
        Version: 3 (0x2)
        Serial Number: 2 (0x2)
    Signature Algorithm: sha1WithRSAEncryption
        Issuer: CN=Example CA, ST=Virginia, C=US/emailAddress=ca@exampleca.org, O=Root Certification Authority
        Validity
            Not Before: Jan 29 12:59:00 2014 GMT
            Not After : Jan 29 12:59:00 2015 GMT
        Subject: CN=localhost, ST=Germany, C=DE/emailAddress=helgav@google.com, O=Client, OU=Client
        Subject Public Key Info:
            Public Key Algorithm: rsaEncryption
                Public-Key: (1024 bit)
                Modulus:
                    00:db:cd:d0:96:e9:79:ba:44:5d:f8:21:2c:8d:db:
                    f3:9a:1c:fa:34:e3:0e:88:02:18:71:c9:3c:58:88:
                    e0:ec:6e:51:70:c8:9b:1f:76:c7:c4:ed:59:7b:62:
                    87:32:18:5a:c9:d3:cb:f2:4e:86:d1:13:d7:a3:4a:
                    70:f0:b9:1e:b3:33:62:4b:7c:91:f4:93:c7:fe:ef:
                    45:e6:22:b4:c8:a0:94:3c:f1:1b:3f:7d:b0:f3:12:
                    21:e8:99:31:3e:e6:d4:32:02:3d:b4:d2:65:77:c8:
                    48:79:fe:e7:b1:d0:ce:36:9f:f2:af:5f:7d:11:7e:
                    44:b4:9f:f6:3d:63:11:a5:dd
                Exponent: 65537 (0x10001)
        X509v3 extensions:
            X509v3 Basic Constraints: 
                CA:FALSE
    Signature Algorithm: sha1WithRSAEncryption
         9e:7f:80:a9:8f:cf:b4:c8:0c:e2:14:2f:a3:1d:63:44:ee:01:
         38:dc:b8:88:07:14:32:e2:ae:1f:d6:19:b4:49:a8:4b:fc:59:
         f5:08:55:22:cd:92:0d:53:5b:68:ac:ff:34:3c:50:c0:8a:2e:
         5b:3c:f5:28:58:a8:da:91:ef:e0:74:6e:30:66:09:27:be:48:
         fc:51:c9:7a:c9:e2:08:e8:e1:33:57:04:3d:b5:81:3a:9c:90:
         3d:4c:b6:a9:ea:7b:3a:6a:45:67:3a:8f:82:ca:87:9f:fe:ad:
         67:f6:58:60:8c:5e:bd:a9:20:93:e4:28:b9:ad:bb:b1:63:69:
         47:f2
-----BEGIN CERTIFICATE-----
MIICdzCCAeCgAwIBAgIBAjANBgkqhkiG9w0BAQUFADB9MRMwEQYDVQQDEwpFeGFt
cGxlIENBMREwDwYDVQQIEwhWaXJnaW5pYTELMAkGA1UEBhMCVVMxHzAdBgkqhkiG
9w0BCQEWEGNhQGV4YW1wbGVjYS5vcmcxJTAjBgNVBAoTHFJvb3QgQ2VydGlmaWNh
dGlvbiBBdXRob3JpdHkwHhcNMTQwMTI5MTI1OTAwWhcNMTUwMTI5MTI1OTAwWjB3
MRIwEAYDVQQDDAlsb2NhbGhvc3QxEDAOBgNVBAgMB0dlcm1hbnkxCzAJBgNVBAYT
AkRFMSAwHgYJKoZIhvcNAQkBFhFoZWxnYXZAZ29vZ2xlLmNvbTEPMA0GA1UECgwG
Q2xpZW50MQ8wDQYDVQQLDAZDbGllbnQwgZ8wDQYJKoZIhvcNAQEBBQADgY0AMIGJ
AoGBANvN0JbpebpEXfghLI3b85oc+jTjDogCGHHJPFiI4OxuUXDImx92x8TtWXti
hzIYWsnTy/JOhtET16NKcPC5HrMzYkt8kfSTx/7vReYitMiglDzxGz99sPMSIeiZ
MT7m1DICPbTSZXfISHn+57HQzjaf8q9ffRF+RLSf9j1jEaXdAgMBAAGjDTALMAkG
A1UdEwQCMAAwDQYJKoZIhvcNAQEFBQADgYEAnn+AqY/PtMgM4hQvox1jRO4BONy4
iAcUMuKuH9YZtEmoS/xZ9QhVIs2SDVNbaKz/NDxQwIouWzz1KFio2pHv4HRuMGYJ
J75I/FHJesniCOjhM1cEPbWBOpyQPUy2qep7OmpFZzqPgsqHn/6tZ/ZYYIxevakg
k+Qoua27sWNpR/I=
-----END CERTIFICATE-----
