Certificate:
    Data:
        Version: 3 (0x2)
        Serial Number: 1 (0x1)
        Signature Algorithm: sha1WithRSAEncryption
        Issuer: CN=Example CA, ST=Virginia, C=US/emailAddress=ca@exampleca.org, O=Root Certification Authority
        Validity
            Not Before: Jan 29 12:36:40 2014 GMT
            Not After : Jan 29 12:36:40 2015 GMT
        Subject: CN=localhost, ST=Germany, C=DE/emailAddress=helgav@google.com, O=Internet Widgits Pty Ltd
        Subject Public Key Info:
            Public Key Algorithm: rsaEncryption
            RSA Public Key: (1024 bit)
                Modulus (1024 bit):
                    00:c2:95:07:20:39:ca:a3:73:ae:80:6c:fe:06:64:
                    25:fa:46:9d:d8:bd:e7:45:fa:e8:d7:53:67:30:92:
                    d0:8d:97:a9:f3:db:41:4a:93:bc:c1:78:b6:c4:fb:
                    4a:8c:86:a2:3d:f6:19:8a:bc:bc:9f:c0:52:1a:ea:
                    24:48:1e:33:e2:ca:9e:4b:57:09:b0:e0:98:f0:97:
                    3c:3c:a2:fa:e4:0a:88:dd:b2:e3:41:0f:53:e6:b0:
                    9d:c2:74:d3:eb:27:66:e6:b8:d3:9a:cd:58:7d:92:
                    ea:ef:c7:61:7e:b9:dd:4f:9b:02:9f:6d:59:5a:99:
                    63:8a:13:e4:d5:7d:f0:bb:c7
                Exponent: 65537 (0x10001)
        X509v3 extensions:
            X509v3 Basic Constraints: 
                CA:FALSE
    Signature Algorithm: sha1WithRSAEncryption
        68:48:ad:54:3a:c1:64:db:c4:7a:37:f3:89:a3:22:b6:73:48:
        b8:46:f0:c6:90:ec:47:4d:2a:c2:4d:91:71:e1:86:54:a1:d2:
        cf:a3:70:ee:13:b5:da:bd:3a:2d:9e:b8:3c:c0:a2:35:c3:ae:
        13:7d:b9:c9:84:5e:3b:ba:fb:f5:43:ec:bd:67:c6:75:17:0f:
        2d:71:b9:65:12:ef:bc:48:96:a0:83:b3:82:c8:d1:17:57:d6:
        5d:0d:cf:cb:d1:36:10:61:be:85:3d:34:b5:50:38:ef:9b:f3:
        f7:41:f1:cd:60:25:bf:25:75:4b:8f:58:fc:65:e9:32:1a:57:
        ff:10
-----BEGIN CERTIFICATE-----
MIICeDCCAeGgAwIBAgIBATANBgkqhkiG9w0BAQUFADB9MRMwEQYDVQQDEwpFeGFt
cGxlIENBMREwDwYDVQQIEwhWaXJnaW5pYTELMAkGA1UEBhMCVVMxHzAdBgkqhkiG
9w0BCQEWEGNhQGV4YW1wbGVjYS5vcmcxJTAjBgNVBAoTHFJvb3QgQ2VydGlmaWNh
dGlvbiBBdXRob3JpdHkwHhcNMTQwMTI5MTIzNjQwWhcNMTUwMTI5MTIzNjQwWjB4
MRIwEAYDVQQDEwlsb2NhbGhvc3QxEDAOBgNVBAgTB0dlcm1hbnkxCzAJBgNVBAYT
AkRFMSAwHgYJKoZIhvcNAQkBFhFoZWxnYXZAZ29vZ2xlLmNvbTEhMB8GA1UEChMY
SW50ZXJuZXQgV2lkZ2l0cyBQdHkgTHRkMIGfMA0GCSqGSIb3DQEBAQUAA4GNADCB
iQKBgQDClQcgOcqjc66AbP4GZCX6Rp3YvedF+ujXU2cwktCNl6nz20FKk7zBeLbE
+0qMhqI99hmKvLyfwFIa6iRIHjPiyp5LVwmw4Jjwlzw8ovrkCojdsuNBD1PmsJ3C
dNPrJ2bmuNOazVh9kurvx2F+ud1PmwKfbVlamWOKE+TVffC7xwIDAQABow0wCzAJ
BgNVHRMEAjAAMA0GCSqGSIb3DQEBBQUAA4GBAGhIrVQ6wWTbxHo384mjIrZzSLhG
8MaQ7EdNKsJNkXHhhlSh0s+jcO4Ttdq9Oi2euDzAojXDrhN9ucmEXju6+/VD7L1n
xnUXDy1xuWUS77xIlqCDs4LI0RdX1l0Nz8vRNhBhvoU9NLVQOO+b8/dB8c1gJb8l
dUuPWPxl6TIaV/8Q
-----END CERTIFICATE-----
