Certificate:
    Data:
        Version: 3 (0x2)
        Serial Number: 1 (0x1)
    Signature Algorithm: sha1WithRSAEncryption
        Issuer: CN=Example CA, ST=Virginia, C=US/emailAddress=ca@exampleca.org, O=Root Certification Authority
        Validity
            Not Before: Jan 29 12:58:54 2014 GMT
            Not After : Jan 29 12:58:54 2015 GMT
        Subject: CN=localhost, ST=Germany, C=DE/emailAddress=helgav@google.com, O=Server, OU=Server
        Subject Public Key Info:
            Public Key Algorithm: rsaEncryption
                Public-Key: (1024 bit)
                Modulus:
                    00:b8:85:56:1e:1a:e1:17:06:c5:a7:fe:c2:72:b5:
                    a1:36:ca:86:ff:17:a0:d0:2b:4f:ab:4f:08:e3:03:
                    49:1a:26:74:d3:3d:99:f8:9b:05:0d:3d:b1:50:65:
                    68:dc:11:38:72:fa:4b:ea:63:6d:c5:e6:f2:ab:eb:
                    c2:98:92:90:0f:90:02:65:af:f6:98:4d:8b:a8:30:
                    8c:aa:99:cc:be:72:e1:31:31:05:58:9c:e0:04:80:
                    02:b5:91:55:62:c4:0e:9a:c0:66:e7:8d:d3:e4:14:
                    11:88:62:06:7e:15:06:e1:89:09:3f:31:d0:fc:11:
                    ba:67:43:65:67:fa:9b:ef:69
                Exponent: 65537 (0x10001)
        X509v3 extensions:
            X509v3 Basic Constraints: 
                CA:FALSE
    Signature Algorithm: sha1WithRSAEncryption
         b2:e8:21:6d:94:ed:b8:7b:92:1a:14:e1:37:5b:8c:9c:41:cc:
         7f:22:fe:14:f5:7b:2d:f3:f6:2f:cf:c2:52:c3:74:c2:9b:6f:
         0c:f1:14:e0:7f:c1:51:ac:d5:b2:f3:9c:82:61:e2:9e:a2:aa:
         98:39:6f:69:fe:22:81:dc:11:6f:e5:54:af:07:6f:53:77:ca:
         b5:be:c2:b1:1c:1b:f1:00:bf:b8:ac:b4:73:5f:6d:60:1d:2d:
         83:03:5a:aa:7b:9a:f8:d2:a6:d6:77:c5:6a:5a:8d:fa:b9:5b:
         b5:04:35:27:29:b9:90:db:ea:1a:e3:fb:d7:1f:93:c8:d5:31:
         e9:fa
-----BEGIN CERTIFICATE-----
MIICdzCCAeCgAwIBAgIBATANBgkqhkiG9w0BAQUFADB9MRMwEQYDVQQDEwpFeGFt
cGxlIENBMREwDwYDVQQIEwhWaXJnaW5pYTELMAkGA1UEBhMCVVMxHzAdBgkqhkiG
9w0BCQEWEGNhQGV4YW1wbGVjYS5vcmcxJTAjBgNVBAoTHFJvb3QgQ2VydGlmaWNh
dGlvbiBBdXRob3JpdHkwHhcNMTQwMTI5MTI1ODU0WhcNMTUwMTI5MTI1ODU0WjB3
MRIwEAYDVQQDDAlsb2NhbGhvc3QxEDAOBgNVBAgMB0dlcm1hbnkxCzAJBgNVBAYT
AkRFMSAwHgYJKoZIhvcNAQkBFhFoZWxnYXZAZ29vZ2xlLmNvbTEPMA0GA1UECgwG
U2VydmVyMQ8wDQYDVQQLDAZTZXJ2ZXIwgZ8wDQYJKoZIhvcNAQEBBQADgY0AMIGJ
AoGBALiFVh4a4RcGxaf+wnK1oTbKhv8XoNArT6tPCOMDSRomdNM9mfibBQ09sVBl
aNwROHL6S+pjbcXm8qvrwpiSkA+QAmWv9phNi6gwjKqZzL5y4TExBVic4ASAArWR
VWLEDprAZueN0+QUEYhiBn4VBuGJCT8x0PwRumdDZWf6m+9pAgMBAAGjDTALMAkG
A1UdEwQCMAAwDQYJKoZIhvcNAQEFBQADgYEAsughbZTtuHuSGhThN1uMnEHMfyL+
FPV7LfP2L8/CUsN0wptvDPEU4H/BUazVsvOcgmHinqKqmDlvaf4igdwRb+VUrwdv
U3fKtb7CsRwb8QC/uKy0c19tYB0tgwNaqnua+NKm1nfFalqN+rlbtQQ1Jym5kNvq
GuP71x+TyNUx6fo=
-----END CERTIFICATE-----
